(lp0
(S'cppflags'
p1
ccopy_reg
_reconstructor
p2
(cino.utils
SpaceList
p3
c__builtin__
list
p4
(lp5
S'-mmcu=atmega2560'
p6
aS'-DF_CPU=16000000L'
p7
aS'-DARDUINO=105'
p8
aS'-I/usr/share/arduino/hardware/arduino/cores/arduino'
p9
aS'-ffunction-sections'
p10
aS'-fdata-sections'
p11
aS'-g'
p12
aS'-Os'
p13
aS'-w'
p14
aS'-I/usr/share/arduino/hardware/arduino/variants/mega'
p15
aS'-I/usr/share/arduino/libraries/SwitecX25'
p16
aS'-I/usr/share/arduino/libraries/SwitecX25/SwitecX25-master'
p17
aS'-I/usr/share/arduino/hardware/arduino/cores/arduino'
p18
aS'-I/usr/share/arduino/hardware/arduino/cores/arduino/avr-libc'
p19
atp20
Rp21
tp22
a(S'cxx'
p23
S'/usr/share/arduino/hardware/tools/avr/bin/avr-g++'
p24
tp25
a(S'arduino_libraries_dir'
p26
S'/usr/share/arduino/libraries'
p27
tp28
a(S'avrdude'
p29
S'/usr/share/arduino/hardware/tools/avrdude'
p30
tp31
a(S'ar'
p32
S'/usr/share/arduino/hardware/tools/avr/bin/avr-ar'
p33
tp34
a(S'names'
p35
(dp36
S'cpp'
p37
S'%s.cpp'
p38
sS'obj'
p39
S'%s.o'
p40
sS'lib'
p41
S'lib%s.a'
p42
sS'deps'
p43
S'%s.d'
p44
stp45
a(S'ldflags'
p46
g2
(g3
g4
(lp47
g6
aS'-Wl,-Os'
p48
aS'-Wl,--gc-sections'
p49
atp50
Rp51
tp52
a(S'arduino_lib_version'
p53
g2
(cino.environment
Version
p54
c__builtin__
tuple
p55
(I1
I0
I5
tp56
tp57
Rp58
tp59
a(S'objcopy'
p60
S'/usr/share/arduino/hardware/tools/avr/bin/avr-objcopy'
p61
tp62
a(S'board_models'
p63
cino.environment
BoardModels
p64
((lp65
(lp66
S'uno'
p67
a(dp68
S'bootloader'
p69
(dp70
S'extended_fuses'
p71
S'0x05'
p72
sS'high_fuses'
p73
S'0xde'
p74
sS'low_fuses'
p75
S'0xff'
p76
sS'lock_bits'
p77
S'0x0F'
p78
sS'file'
p79
S'optiboot_atmega328.hex'
p80
sS'path'
p81
S'optiboot'
p82
sS'unlock_bits'
p83
S'0x3F'
p84
ssS'upload'
p85
(dp86
S'speed'
p87
S'115200'
p88
sS'maximum_size'
p89
S'32256'
p90
sS'protocol'
p91
S'arduino'
p92
ssS'build'
p93
(dp94
S'core'
p95
S'arduino'
p96
sS'mcu'
p97
S'atmega328p'
p98
sS'f_cpu'
p99
S'16000000L'
p100
sS'variant'
p101
S'standard'
p102
ssS'name'
p103
S'Arduino Uno'
p104
sS'_coredir'
p105
S'/usr/share/arduino/hardware/arduino'
p106
saa(lp107
S'atmega328'
p108
a(dp109
S'bootloader'
p110
(dp111
S'extended_fuses'
p112
S'0x05'
p113
sS'high_fuses'
p114
S'0xDA'
p115
sS'low_fuses'
p116
S'0xFF'
p117
sS'lock_bits'
p118
S'0x0F'
p119
sS'file'
p120
S'ATmegaBOOT_168_atmega328.hex'
p121
sS'path'
p122
S'atmega'
p123
sS'unlock_bits'
p124
S'0x3F'
p125
ssS'upload'
p126
(dp127
S'speed'
p128
S'57600'
p129
sS'maximum_size'
p130
S'30720'
p131
sS'protocol'
p132
S'arduino'
p133
ssS'build'
p134
(dp135
S'core'
p136
S'arduino'
p137
sS'mcu'
p138
S'atmega328p'
p139
sS'f_cpu'
p140
S'16000000L'
p141
sS'variant'
p142
S'standard'
p143
ssS'name'
p144
S'Arduino Duemilanove w/ ATmega328'
p145
sg105
S'/usr/share/arduino/hardware/arduino'
p146
saa(lp147
S'diecimila'
p148
a(dp149
S'bootloader'
p150
(dp151
S'extended_fuses'
p152
S'0x00'
p153
sS'high_fuses'
p154
S'0xdd'
p155
sS'low_fuses'
p156
S'0xff'
p157
sS'lock_bits'
p158
S'0x0F'
p159
sS'file'
p160
S'ATmegaBOOT_168_diecimila.hex'
p161
sS'path'
p162
S'atmega'
p163
sS'unlock_bits'
p164
S'0x3F'
p165
ssS'upload'
p166
(dp167
S'speed'
p168
S'19200'
p169
sS'maximum_size'
p170
S'14336'
p171
sS'protocol'
p172
S'arduino'
p173
ssS'build'
p174
(dp175
S'core'
p176
S'arduino'
p177
sS'mcu'
p178
S'atmega168'
p179
sS'f_cpu'
p180
S'16000000L'
p181
sS'variant'
p182
S'standard'
p183
ssS'name'
p184
S'Arduino Diecimila or Duemilanove w/ ATmega168'
p185
sg105
S'/usr/share/arduino/hardware/arduino'
p186
saa(lp187
S'nano328'
p188
a(dp189
S'bootloader'
p190
(dp191
S'extended_fuses'
p192
S'0x05'
p193
sS'high_fuses'
p194
S'0xDA'
p195
sS'low_fuses'
p196
S'0xFF'
p197
sS'lock_bits'
p198
S'0x0F'
p199
sS'file'
p200
S'ATmegaBOOT_168_atmega328.hex'
p201
sS'path'
p202
S'atmega'
p203
sS'unlock_bits'
p204
S'0x3F'
p205
ssS'upload'
p206
(dp207
S'speed'
p208
S'57600'
p209
sS'maximum_size'
p210
S'30720'
p211
sS'protocol'
p212
S'arduino'
p213
ssS'build'
p214
(dp215
S'core'
p216
S'arduino'
p217
sS'mcu'
p218
S'atmega328p'
p219
sS'f_cpu'
p220
S'16000000L'
p221
sS'variant'
p222
S'eightanaloginputs'
p223
ssS'name'
p224
S'Arduino Nano w/ ATmega328'
p225
sg105
S'/usr/share/arduino/hardware/arduino'
p226
saa(lp227
S'nano'
p228
a(dp229
S'bootloader'
p230
(dp231
S'extended_fuses'
p232
S'0x00'
p233
sS'high_fuses'
p234
S'0xdd'
p235
sS'low_fuses'
p236
S'0xff'
p237
sS'lock_bits'
p238
S'0x0F'
p239
sS'file'
p240
S'ATmegaBOOT_168_diecimila.hex'
p241
sS'path'
p242
S'atmega'
p243
sS'unlock_bits'
p244
S'0x3F'
p245
ssS'upload'
p246
(dp247
S'speed'
p248
S'19200'
p249
sS'maximum_size'
p250
S'14336'
p251
sS'protocol'
p252
S'arduino'
p253
ssS'build'
p254
(dp255
S'core'
p256
S'arduino'
p257
sS'mcu'
p258
S'atmega168'
p259
sS'f_cpu'
p260
S'16000000L'
p261
sS'variant'
p262
S'eightanaloginputs'
p263
ssS'name'
p264
S'Arduino Nano w/ ATmega168'
p265
sg105
S'/usr/share/arduino/hardware/arduino'
p266
saa(lp267
S'mega2560'
p268
a(dp269
S'bootloader'
p270
(dp271
S'extended_fuses'
p272
S'0xFD'
p273
sS'high_fuses'
p274
S'0xD8'
p275
sS'low_fuses'
p276
S'0xFF'
p277
sS'lock_bits'
p278
S'0x0F'
p279
sS'file'
p280
S'stk500boot_v2_mega2560.hex'
p281
sS'path'
p282
S'stk500v2'
p283
sS'unlock_bits'
p284
S'0x3F'
p285
ssS'upload'
p286
(dp287
S'speed'
p288
S'115200'
p289
sS'maximum_size'
p290
S'258048'
p291
sS'protocol'
p292
S'wiring'
p293
ssS'build'
p294
(dp295
S'core'
p296
S'arduino'
p297
sS'mcu'
p298
S'atmega2560'
p299
sS'f_cpu'
p300
S'16000000L'
p301
sS'variant'
p302
S'mega'
p303
ssS'name'
p304
S'Arduino Mega 2560 or Mega ADK'
p305
sg105
S'/usr/share/arduino/hardware/arduino'
p306
saa(lp307
S'mega'
p308
a(dp309
S'bootloader'
p310
(dp311
S'extended_fuses'
p312
S'0xF5'
p313
sS'high_fuses'
p314
S'0xDA'
p315
sS'low_fuses'
p316
S'0xFF'
p317
sS'lock_bits'
p318
S'0x0F'
p319
sS'file'
p320
S'ATmegaBOOT_168_atmega1280.hex'
p321
sS'path'
p322
S'atmega'
p323
sS'unlock_bits'
p324
S'0x3F'
p325
ssS'upload'
p326
(dp327
S'speed'
p328
S'57600'
p329
sS'maximum_size'
p330
S'126976'
p331
sS'protocol'
p332
S'arduino'
p333
ssS'build'
p334
(dp335
S'core'
p336
S'arduino'
p337
sS'mcu'
p338
S'atmega1280'
p339
sS'f_cpu'
p340
S'16000000L'
p341
sS'variant'
p342
S'mega'
p343
ssS'name'
p344
S'Arduino Mega (ATmega1280)'
p345
sg105
S'/usr/share/arduino/hardware/arduino'
p346
saa(lp347
S'leonardo'
p348
a(dp349
S'bootloader'
p350
(dp351
S'extended_fuses'
p352
S'0xcb'
p353
sS'high_fuses'
p354
S'0xd8'
p355
sS'low_fuses'
p356
S'0xff'
p357
sS'lock_bits'
p358
S'0x2F'
p359
sS'file'
p360
S'Caterina-Leonardo.hex'
p361
sS'path'
p362
S'caterina'
p363
sS'unlock_bits'
p364
S'0x3F'
p365
ssS'upload'
p366
(dp367
S'speed'
p368
S'57600'
p369
sS'maximum_size'
p370
S'28672'
p371
sS'protocol'
p372
S'avr109'
p373
sS'disable_flushing'
p374
S'true'
p375
ssS'build'
p376
(dp377
S'core'
p378
S'arduino'
p379
sS'f_cpu'
p380
S'16000000L'
p381
sS'vid'
p382
S'0x2341'
p383
sS'pid'
p384
S'0x8036'
p385
sS'variant'
p386
S'leonardo'
p387
sS'mcu'
p388
S'atmega32u4'
p389
ssS'name'
p390
S'Arduino Leonardo'
p391
sg105
S'/usr/share/arduino/hardware/arduino'
p392
saa(lp393
S'esplora'
p394
a(dp395
S'bootloader'
p396
(dp397
S'extended_fuses'
p398
S'0xcb'
p399
sS'high_fuses'
p400
S'0xd8'
p401
sS'low_fuses'
p402
S'0xff'
p403
sS'lock_bits'
p404
S'0x2F'
p405
sS'file'
p406
S'Caterina-Esplora.hex'
p407
sS'path'
p408
S'caterina'
p409
sS'unlock_bits'
p410
S'0x3F'
p411
ssS'upload'
p412
(dp413
S'speed'
p414
S'57600'
p415
sS'maximum_size'
p416
S'28672'
p417
sS'protocol'
p418
S'avr109'
p419
sS'disable_flushing'
p420
S'true'
p421
ssS'build'
p422
(dp423
S'core'
p424
S'arduino'
p425
sS'f_cpu'
p426
S'16000000L'
p427
sS'vid'
p428
S'0x2341'
p429
sS'pid'
p430
S'0x803C'
p431
sS'variant'
p432
S'leonardo'
p433
sS'mcu'
p434
S'atmega32u4'
p435
ssS'name'
p436
S'Arduino Esplora'
p437
sg105
S'/usr/share/arduino/hardware/arduino'
p438
saa(lp439
S'micro'
p440
a(dp441
S'bootloader'
p442
(dp443
S'extended_fuses'
p444
S'0xcb'
p445
sS'high_fuses'
p446
S'0xd8'
p447
sS'low_fuses'
p448
S'0xff'
p449
sS'lock_bits'
p450
S'0x2F'
p451
sS'file'
p452
S'Caterina-Micro.hex'
p453
sS'path'
p454
S'caterina'
p455
sS'unlock_bits'
p456
S'0x3F'
p457
ssS'upload'
p458
(dp459
S'speed'
p460
S'57600'
p461
sS'maximum_size'
p462
S'28672'
p463
sS'protocol'
p464
S'avr109'
p465
sS'disable_flushing'
p466
S'true'
p467
ssS'build'
p468
(dp469
S'core'
p470
S'arduino'
p471
sS'f_cpu'
p472
S'16000000L'
p473
sS'vid'
p474
S'0x2341'
p475
sS'pid'
p476
S'0x8037'
p477
sS'variant'
p478
S'micro'
p479
sS'mcu'
p480
S'atmega32u4'
p481
ssS'name'
p482
S'Arduino Micro'
p483
sg105
S'/usr/share/arduino/hardware/arduino'
p484
saa(lp485
S'mini328'
p486
a(dp487
S'bootloader'
p488
(dp489
S'extended_fuses'
p490
S'0x05'
p491
sS'high_fuses'
p492
S'0xd8'
p493
sS'low_fuses'
p494
S'0xff'
p495
sS'lock_bits'
p496
S'0x0F'
p497
sS'file'
p498
S'optiboot_atmega328-Mini.hex'
p499
sS'path'
p500
S'optiboot'
p501
sS'unlock_bits'
p502
S'0x3F'
p503
ssS'upload'
p504
(dp505
S'speed'
p506
S'115200'
p507
sS'maximum_size'
p508
S'28672'
p509
sS'protocol'
p510
S'arduino'
p511
ssS'build'
p512
(dp513
S'core'
p514
S'arduino'
p515
sS'mcu'
p516
S'atmega328p'
p517
sS'f_cpu'
p518
S'16000000L'
p519
sS'variant'
p520
S'eightanaloginputs'
p521
ssS'name'
p522
S'Arduino Mini w/ ATmega328'
p523
sg105
S'/usr/share/arduino/hardware/arduino'
p524
saa(lp525
S'mini'
p526
a(dp527
S'bootloader'
p528
(dp529
S'extended_fuses'
p530
S'0x00'
p531
sS'high_fuses'
p532
S'0xdd'
p533
sS'low_fuses'
p534
S'0xff'
p535
sS'lock_bits'
p536
S'0x0F'
p537
sS'file'
p538
S'ATmegaBOOT_168_ng.hex'
p539
sS'path'
p540
S'atmega'
p541
sS'unlock_bits'
p542
S'0x3F'
p543
ssS'upload'
p544
(dp545
S'speed'
p546
S'19200'
p547
sS'maximum_size'
p548
S'14336'
p549
sS'protocol'
p550
S'arduino'
p551
ssS'build'
p552
(dp553
S'core'
p554
S'arduino'
p555
sS'mcu'
p556
S'atmega168'
p557
sS'f_cpu'
p558
S'16000000L'
p559
sS'variant'
p560
S'eightanaloginputs'
p561
ssS'name'
p562
S'Arduino Mini w/ ATmega168'
p563
sg105
S'/usr/share/arduino/hardware/arduino'
p564
saa(lp565
S'ethernet'
p566
a(dp567
S'bootloader'
p568
(dp569
S'extended_fuses'
p570
S'0x05'
p571
sS'high_fuses'
p572
S'0xde'
p573
sS'low_fuses'
p574
S'0xff'
p575
sS'lock_bits'
p576
S'0x0F'
p577
sS'file'
p578
S'optiboot_atmega328.hex'
p579
sS'path'
p580
S'optiboot'
p581
sS'unlock_bits'
p582
S'0x3F'
p583
ssS'upload'
p584
(dp585
S'speed'
p586
S'115200'
p587
sS'maximum_size'
p588
S'32256'
p589
sS'protocol'
p590
S'arduino'
p591
ssS'build'
p592
(dp593
S'f_cpu'
p594
S'16000000L'
p595
sS'mcu'
p596
S'atmega328p'
p597
sS'variant'
p598
S'standard'
p599
sS'core'
p600
S'arduino'
p601
ssS'name'
p602
S'Arduino Ethernet'
p603
sg105
S'/usr/share/arduino/hardware/arduino'
p604
saa(lp605
S'fio'
p606
a(dp607
S'bootloader'
p608
(dp609
S'extended_fuses'
p610
S'0x05'
p611
sS'high_fuses'
p612
S'0xDA'
p613
sS'low_fuses'
p614
S'0xFF'
p615
sS'lock_bits'
p616
S'0x0F'
p617
sS'file'
p618
S'ATmegaBOOT_168_atmega328_pro_8MHz.hex'
p619
sS'path'
p620
S'arduino:atmega'
p621
sS'unlock_bits'
p622
S'0x3F'
p623
ssS'upload'
p624
(dp625
S'speed'
p626
S'57600'
p627
sS'maximum_size'
p628
S'30720'
p629
sS'protocol'
p630
S'arduino'
p631
ssS'build'
p632
(dp633
S'core'
p634
S'arduino'
p635
sS'mcu'
p636
S'atmega328p'
p637
sS'f_cpu'
p638
S'8000000L'
p639
sS'variant'
p640
S'eightanaloginputs'
p641
ssS'name'
p642
S'Arduino Fio'
p643
sg105
S'/usr/share/arduino/hardware/arduino'
p644
saa(lp645
S'bt328'
p646
a(dp647
S'bootloader'
p648
(dp649
S'extended_fuses'
p650
S'0x05'
p651
sS'high_fuses'
p652
S'0xd8'
p653
sS'low_fuses'
p654
S'0xff'
p655
sS'lock_bits'
p656
S'0x0F'
p657
sS'file'
p658
S'ATmegaBOOT_168_atmega328_bt.hex'
p659
sS'path'
p660
S'bt'
p661
sS'unlock_bits'
p662
S'0x3F'
p663
ssS'upload'
p664
(dp665
S'speed'
p666
S'19200'
p667
sS'maximum_size'
p668
S'28672'
p669
sS'protocol'
p670
S'arduino'
p671
sS'disable_flushing'
p672
S'true'
p673
ssS'build'
p674
(dp675
S'core'
p676
S'arduino'
p677
sS'mcu'
p678
S'atmega328p'
p679
sS'f_cpu'
p680
S'16000000L'
p681
sS'variant'
p682
S'eightanaloginputs'
p683
ssS'name'
p684
S'Arduino BT w/ ATmega328'
p685
sg105
S'/usr/share/arduino/hardware/arduino'
p686
saa(lp687
S'bt'
p688
a(dp689
S'bootloader'
p690
(dp691
S'extended_fuses'
p692
S'0x00'
p693
sS'high_fuses'
p694
S'0xdd'
p695
sS'low_fuses'
p696
S'0xff'
p697
sS'lock_bits'
p698
S'0x0F'
p699
sS'file'
p700
S'ATmegaBOOT_168.hex'
p701
sS'path'
p702
S'bt'
p703
sS'unlock_bits'
p704
S'0x3F'
p705
ssS'upload'
p706
(dp707
S'speed'
p708
S'19200'
p709
sS'maximum_size'
p710
S'14336'
p711
sS'protocol'
p712
S'arduino'
p713
sS'disable_flushing'
p714
S'true'
p715
ssS'build'
p716
(dp717
S'core'
p718
S'arduino'
p719
sS'mcu'
p720
S'atmega168'
p721
sS'f_cpu'
p722
S'16000000L'
p723
sS'variant'
p724
S'eightanaloginputs'
p725
ssS'name'
p726
S'Arduino BT w/ ATmega168'
p727
sg105
S'/usr/share/arduino/hardware/arduino'
p728
saa(lp729
S'LilyPadUSB'
p730
a(dp731
S'bootloader'
p732
(dp733
S'extended_fuses'
p734
S'0xce'
p735
sS'high_fuses'
p736
S'0xd8'
p737
sS'low_fuses'
p738
S'0xff'
p739
sS'lock_bits'
p740
S'0x2F'
p741
sS'file'
p742
S'Caterina-LilyPadUSB.hex'
p743
sS'path'
p744
S'caterina-LilyPadUSB'
p745
sS'unlock_bits'
p746
S'0x3F'
p747
ssS'upload'
p748
(dp749
S'speed'
p750
S'57600'
p751
sS'maximum_size'
p752
S'28672'
p753
sS'protocol'
p754
S'avr109'
p755
sS'disable_flushing'
p756
S'true'
p757
ssS'build'
p758
(dp759
S'core'
p760
S'arduino'
p761
sS'f_cpu'
p762
S'8000000L'
p763
sS'vid'
p764
S'0x1B4F'
p765
sS'pid'
p766
S'0x9208'
p767
sS'variant'
p768
S'leonardo'
p769
sS'mcu'
p770
S'atmega32u4'
p771
ssS'name'
p772
S'LilyPad Arduino USB'
p773
sg105
S'/usr/share/arduino/hardware/arduino'
p774
saa(lp775
S'lilypad328'
p776
a(dp777
S'bootloader'
p778
(dp779
S'extended_fuses'
p780
S'0x05'
p781
sS'high_fuses'
p782
S'0xDA'
p783
sS'low_fuses'
p784
S'0xFF'
p785
sS'lock_bits'
p786
S'0x0F'
p787
sS'file'
p788
S'ATmegaBOOT_168_atmega328_pro_8MHz.hex'
p789
sS'path'
p790
S'atmega'
p791
sS'unlock_bits'
p792
S'0x3F'
p793
ssS'upload'
p794
(dp795
S'speed'
p796
S'57600'
p797
sS'maximum_size'
p798
S'30720'
p799
sS'protocol'
p800
S'arduino'
p801
ssS'build'
p802
(dp803
S'core'
p804
S'arduino'
p805
sS'mcu'
p806
S'atmega328p'
p807
sS'f_cpu'
p808
S'8000000L'
p809
sS'variant'
p810
S'standard'
p811
ssS'name'
p812
S'LilyPad Arduino w/ ATmega328'
p813
sg105
S'/usr/share/arduino/hardware/arduino'
p814
saa(lp815
S'lilypad'
p816
a(dp817
S'bootloader'
p818
(dp819
S'extended_fuses'
p820
S'0x00'
p821
sS'high_fuses'
p822
S'0xdd'
p823
sS'low_fuses'
p824
S'0xe2'
p825
sS'lock_bits'
p826
S'0x0F'
p827
sS'file'
p828
S'LilyPadBOOT_168.hex'
p829
sS'path'
p830
S'lilypad'
p831
sS'unlock_bits'
p832
S'0x3F'
p833
ssS'upload'
p834
(dp835
S'speed'
p836
S'19200'
p837
sS'maximum_size'
p838
S'14336'
p839
sS'protocol'
p840
S'arduino'
p841
ssS'build'
p842
(dp843
S'core'
p844
S'arduino'
p845
sS'mcu'
p846
S'atmega168'
p847
sS'f_cpu'
p848
S'8000000L'
p849
sS'variant'
p850
S'standard'
p851
ssS'name'
p852
S'LilyPad Arduino w/ ATmega168'
p853
sg105
S'/usr/share/arduino/hardware/arduino'
p854
saa(lp855
S'pro5v328'
p856
a(dp857
S'bootloader'
p858
(dp859
S'extended_fuses'
p860
S'0x05'
p861
sS'high_fuses'
p862
S'0xDA'
p863
sS'low_fuses'
p864
S'0xFF'
p865
sS'lock_bits'
p866
S'0x0F'
p867
sS'file'
p868
S'ATmegaBOOT_168_atmega328.hex'
p869
sS'path'
p870
S'atmega'
p871
sS'unlock_bits'
p872
S'0x3F'
p873
ssS'upload'
p874
(dp875
S'speed'
p876
S'57600'
p877
sS'maximum_size'
p878
S'30720'
p879
sS'protocol'
p880
S'arduino'
p881
ssS'build'
p882
(dp883
S'core'
p884
S'arduino'
p885
sS'mcu'
p886
S'atmega328p'
p887
sS'f_cpu'
p888
S'16000000L'
p889
sS'variant'
p890
S'standard'
p891
ssS'name'
p892
S'Arduino Pro or Pro Mini (5V, 16 MHz) w/ ATmega328'
p893
sg105
S'/usr/share/arduino/hardware/arduino'
p894
saa(lp895
S'pro5v'
p896
a(dp897
S'bootloader'
p898
(dp899
S'extended_fuses'
p900
S'0x00'
p901
sS'high_fuses'
p902
S'0xdd'
p903
sS'low_fuses'
p904
S'0xff'
p905
sS'lock_bits'
p906
S'0x0F'
p907
sS'file'
p908
S'ATmegaBOOT_168_diecimila.hex'
p909
sS'path'
p910
S'atmega'
p911
sS'unlock_bits'
p912
S'0x3F'
p913
ssS'upload'
p914
(dp915
S'speed'
p916
S'19200'
p917
sS'maximum_size'
p918
S'14336'
p919
sS'protocol'
p920
S'arduino'
p921
ssS'build'
p922
(dp923
S'core'
p924
S'arduino'
p925
sS'mcu'
p926
S'atmega168'
p927
sS'f_cpu'
p928
S'16000000L'
p929
sS'variant'
p930
S'standard'
p931
ssS'name'
p932
S'Arduino Pro or Pro Mini (5V, 16 MHz) w/ ATmega168'
p933
sg105
S'/usr/share/arduino/hardware/arduino'
p934
saa(lp935
S'pro328'
p936
a(dp937
S'bootloader'
p938
(dp939
S'extended_fuses'
p940
S'0x05'
p941
sS'high_fuses'
p942
S'0xDA'
p943
sS'low_fuses'
p944
S'0xFF'
p945
sS'lock_bits'
p946
S'0x0F'
p947
sS'file'
p948
S'ATmegaBOOT_168_atmega328_pro_8MHz.hex'
p949
sS'path'
p950
S'atmega'
p951
sS'unlock_bits'
p952
S'0x3F'
p953
ssS'upload'
p954
(dp955
S'speed'
p956
S'57600'
p957
sS'maximum_size'
p958
S'30720'
p959
sS'protocol'
p960
S'arduino'
p961
ssS'build'
p962
(dp963
S'core'
p964
S'arduino'
p965
sS'mcu'
p966
S'atmega328p'
p967
sS'f_cpu'
p968
S'8000000L'
p969
sS'variant'
p970
S'standard'
p971
ssS'name'
p972
S'Arduino Pro or Pro Mini (3.3V, 8 MHz) w/ ATmega328'
p973
sg105
S'/usr/share/arduino/hardware/arduino'
p974
saa(lp975
S'pro'
p976
a(dp977
S'bootloader'
p978
(dp979
S'extended_fuses'
p980
S'0x00'
p981
sS'high_fuses'
p982
S'0xdd'
p983
sS'low_fuses'
p984
S'0xc6'
p985
sS'lock_bits'
p986
S'0x0F'
p987
sS'file'
p988
S'ATmegaBOOT_168_pro_8MHz.hex'
p989
sS'path'
p990
S'atmega'
p991
sS'unlock_bits'
p992
S'0x3F'
p993
ssS'upload'
p994
(dp995
S'speed'
p996
S'19200'
p997
sS'maximum_size'
p998
S'14336'
p999
sS'protocol'
p1000
S'arduino'
p1001
ssS'build'
p1002
(dp1003
S'core'
p1004
S'arduino'
p1005
sS'mcu'
p1006
S'atmega168'
p1007
sS'f_cpu'
p1008
S'8000000L'
p1009
sS'variant'
p1010
S'standard'
p1011
ssS'name'
p1012
S'Arduino Pro or Pro Mini (3.3V, 8 MHz) w/ ATmega168'
p1013
sg105
S'/usr/share/arduino/hardware/arduino'
p1014
saa(lp1015
S'atmega168'
p1016
a(dp1017
S'bootloader'
p1018
(dp1019
S'extended_fuses'
p1020
S'0x00'
p1021
sS'high_fuses'
p1022
S'0xdd'
p1023
sS'low_fuses'
p1024
S'0xff'
p1025
sS'lock_bits'
p1026
S'0x0F'
p1027
sS'file'
p1028
S'ATmegaBOOT_168_ng.hex'
p1029
sS'path'
p1030
S'atmega'
p1031
sS'unlock_bits'
p1032
S'0x3F'
p1033
ssS'upload'
p1034
(dp1035
S'speed'
p1036
S'19200'
p1037
sS'maximum_size'
p1038
S'14336'
p1039
sS'protocol'
p1040
S'arduino'
p1041
ssS'build'
p1042
(dp1043
S'core'
p1044
S'arduino'
p1045
sS'mcu'
p1046
S'atmega168'
p1047
sS'f_cpu'
p1048
S'16000000L'
p1049
sS'variant'
p1050
S'standard'
p1051
ssS'name'
p1052
S'Arduino NG or older w/ ATmega168'
p1053
sg105
S'/usr/share/arduino/hardware/arduino'
p1054
saa(lp1055
S'atmega8'
p1056
a(dp1057
S'bootloader'
p1058
(dp1059
S'high_fuses'
p1060
S'0xca'
p1061
sS'low_fuses'
p1062
S'0xdf'
p1063
sS'lock_bits'
p1064
S'0x0F'
p1065
sS'file'
p1066
S'ATmegaBOOT-prod-firmware-2009-11-07.hex'
p1067
sS'path'
p1068
S'atmega8'
p1069
sS'unlock_bits'
p1070
S'0x3F'
p1071
ssS'upload'
p1072
(dp1073
S'speed'
p1074
S'19200'
p1075
sS'maximum_size'
p1076
S'7168'
p1077
sS'protocol'
p1078
S'arduino'
p1079
ssS'build'
p1080
(dp1081
S'core'
p1082
S'arduino'
p1083
sS'mcu'
p1084
S'atmega8'
p1085
sS'f_cpu'
p1086
S'16000000L'
p1087
sS'variant'
p1088
S'standard'
p1089
ssS'name'
p1090
S'Arduino NG or older w/ ATmega8'
p1091
sg105
S'/usr/share/arduino/hardware/arduino'
p1092
saa(lp1093
S'robotControl'
p1094
a(dp1095
S'bootloader'
p1096
(dp1097
S'extended_fuses'
p1098
S'0xcb'
p1099
sS'high_fuses'
p1100
S'0xd8'
p1101
sS'low_fuses'
p1102
S'0xff'
p1103
sS'lock_bits'
p1104
S'0x2F'
p1105
sS'file'
p1106
S'Caterina-Robot-Control.hex'
p1107
sS'path'
p1108
S'caterina-Arduino_Robot'
p1109
sS'unlock_bits'
p1110
S'0x3F'
p1111
ssS'upload'
p1112
(dp1113
S'speed'
p1114
S'57600'
p1115
sS'maximum_size'
p1116
S'28672'
p1117
sS'protocol'
p1118
S'avr109'
p1119
sS'disable_flushing'
p1120
S'true'
p1121
ssS'build'
p1122
(dp1123
S'core'
p1124
S'robot'
p1125
sS'f_cpu'
p1126
S'16000000L'
p1127
sS'vid'
p1128
S'0x2341'
p1129
sS'pid'
p1130
S'0x8038'
p1131
sS'variant'
p1132
S'robot_control'
p1133
sS'mcu'
p1134
S'atmega32u4'
p1135
ssS'name'
p1136
S'Arduino Robot Control'
p1137
sg105
S'/usr/share/arduino/hardware/arduino'
p1138
saa(lp1139
S'robotMotor'
p1140
a(dp1141
S'bootloader'
p1142
(dp1143
S'extended_fuses'
p1144
S'0xcb'
p1145
sS'high_fuses'
p1146
S'0xd8'
p1147
sS'low_fuses'
p1148
S'0xff'
p1149
sS'lock_bits'
p1150
S'0x2F'
p1151
sS'file'
p1152
S'Caterina-Robot-Motor.hex'
p1153
sS'path'
p1154
S'caterina-Arduino_Robot'
p1155
sS'unlock_bits'
p1156
S'0x3F'
p1157
ssS'upload'
p1158
(dp1159
S'speed'
p1160
S'57600'
p1161
sS'maximum_size'
p1162
S'28672'
p1163
sS'protocol'
p1164
S'avr109'
p1165
sS'disable_flushing'
p1166
S'true'
p1167
ssS'build'
p1168
(dp1169
S'core'
p1170
S'robot'
p1171
sS'f_cpu'
p1172
S'16000000L'
p1173
sS'vid'
p1174
S'0x2341'
p1175
sS'pid'
p1176
S'0x8039'
p1177
sS'variant'
p1178
S'robot_motor'
p1179
sS'mcu'
p1180
S'atmega32u4'
p1181
ssS'name'
p1182
S'Arduino Robot Motor'
p1183
sg105
S'/usr/share/arduino/hardware/arduino'
p1184
saatp1185
Rp1186
(dp1187
S'default'
p1188
S'uno'
p1189
sbtp1190
a(S'used_libs'
p1191
(lp1192
S'/usr/share/arduino/libraries/SwitecX25'
p1193
aS'/usr/share/arduino/hardware/arduino/cores/arduino'
p1194
atp1195
a(S'make'
p1196
S'/usr/share/arduino/hardware/tools/avr/bin/make'
p1197
tp1198
a(S'build_dir'
p1199
S'.build/mega2560'
p1200
tp1201
a(S'cc'
p1202
S'/usr/share/arduino/hardware/tools/avr/bin/avr-gcc'
p1203
tp1204
a(S'cflags'
p1205
g2
(g3
g4
(lp1206
tp1207
Rp1208
tp1209
a(S'cxxflags'
p1210
g2
(g3
g4
(lp1211
S'-fno-exceptions'
p1212
atp1213
Rp1214
tp1215
a(S'arduino_variants_dir'
p1216
S'/usr/share/arduino/hardware/arduino/variants'
p1217
tp1218
a(S'serial'
p1219
S'/usr/bin/picocom'
p1220
tp1221
a(S'stty'
p1222
S'/bin/stty'
p1223
tp1224
a(S'version.txt'
p1225
S'/usr/share/arduino/lib/version.txt'
p1226
tp1227
a(S'arduino_core_dir'
p1228
g1194
tp1229
a(S'boards.txt'
p1230
(lp1231
S'/usr/share/arduino/hardware/arduino/boards.txt'
p1232
atp1233
a(S'avrdude.conf'
p1234
S'/usr/share/arduino/hardware/tools/avrdude.conf'
p1235
tp1236
a(S'deps'
p1237
g2
(g3
g4
(lp1238
S'.build/mega2560/src/dependencies.d'
p1239
aS'.build/mega2560/arduino/dependencies.d'
p1240
aS'.build/mega2560/SwitecX25/dependencies.d'
p1241
atp1242
Rp1243
tp1244
a.